target datalayout = "e-m:e-p270:32:32-p271:32:32-p272:64:64-i64:64-i128:128-f80:128-n8:16:32:64-S128"
target triple = "x86_64-pc-linux-gnu"

@bio_out = global ptr null, align 8
@bio_err = global ptr null, align 8
@stdout = external global ptr, align 8
@tap_out = internal global ptr null, align 8
@stderr = external global ptr, align 8
@tap_err = internal global ptr null, align 8
@.str = private unnamed_addr constant [3 x i8] c"# \00", align 1
@io_lock = internal global ptr null, align 8
@.str.1 = private unnamed_addr constant [21 x i8] c"assertion failed: ok\00", align 1
@.str.2 = private unnamed_addr constant [40 x i8] c"../openssl/test/testutil/basic_output.c\00", align 1
@.str.3 = private unnamed_addr constant [34 x i8] c"assertion failed: bio_out != NULL\00", align 1
@.str.4 = private unnamed_addr constant [34 x i8] c"assertion failed: bio_err != NULL\00", align 1
@.str.5 = private unnamed_addr constant [34 x i8] c"assertion failed: io_lock != NULL\00", align 1
@local_test_data = internal global i32 0, align 4

; Function Attrs: nounwind uwtable
define internal i32 @init_local_test_data() #0 {
  %1 = alloca i32, align 4
  %2 = call i32 @CRYPTO_THREAD_init_local(ptr noundef @local_test_data, ptr noundef @cleanup_test_data)
  %3 = icmp ne i32 %2, 0
  br i1 %3, label %5, label %4

4:                                                ; preds = %0
  store i32 0, ptr %1, align 4
  br label %6

5:                                                ; preds = %0
  store i32 1, ptr %1, align 4
  br label %6

6:                                                ; preds = %5, %4
  %7 = load i32, ptr %1, align 4
  ret i32 %7
}

; Function Attrs: nounwind uwtable
define void @test_open_streams() #0 {
  %1 = alloca i32, align 4
  call void @llvm.lifetime.start.p0(i64 4, ptr %1) #5
  %2 = call i32 @init_local_test_data()
  store i32 %2, ptr %1, align 4, !tbaa !13
  %3 = load ptr, ptr @stdout, align 8, !tbaa !15
  %4 = call ptr @BIO_new_fp(ptr noundef %3, i32 noundef 16)
  store ptr %4, ptr @tap_out, align 8, !tbaa !3
  %5 = load ptr, ptr @stderr, align 8, !tbaa !15
  %6 = call ptr @BIO_new_fp(ptr noundef %5, i32 noundef 16)
  store ptr %6, ptr @tap_err, align 8, !tbaa !3
  %7 = call ptr @BIO_f_prefix()
  %8 = call ptr @BIO_new(ptr noundef %7)
  %9 = load ptr, ptr @tap_out, align 8, !tbaa !3
  %10 = call ptr @BIO_push(ptr noundef %8, ptr noundef %9)
  store ptr %10, ptr @tap_out, align 8, !tbaa !3
  %11 = call ptr @BIO_f_prefix()
  %12 = call ptr @BIO_new(ptr noundef %11)
  %13 = load ptr, ptr @tap_err, align 8, !tbaa !3
  %14 = call ptr @BIO_push(ptr noundef %12, ptr noundef %13)
  store ptr %14, ptr @tap_err, align 8, !tbaa !3
  %15 = call ptr @BIO_f_prefix()
  %16 = call ptr @BIO_new(ptr noundef %15)
  %17 = load ptr, ptr @tap_out, align 8, !tbaa !3
  %18 = call ptr @BIO_push(ptr noundef %16, ptr noundef %17)
  store ptr %18, ptr @bio_out, align 8, !tbaa !3
  %19 = call ptr @BIO_f_prefix()
  %20 = call ptr @BIO_new(ptr noundef %19)
  %21 = load ptr, ptr @tap_err, align 8, !tbaa !3
  %22 = call ptr @BIO_push(ptr noundef %20, ptr noundef %21)
  store ptr %22, ptr @bio_err, align 8, !tbaa !3
  %23 = load ptr, ptr @bio_out, align 8, !tbaa !3
  %24 = call i64 @BIO_ctrl(ptr noundef %23, i32 noundef 79, i64 noundef 0, ptr noundef @.str)
  %25 = load ptr, ptr @bio_err, align 8, !tbaa !3
  %26 = call i64 @BIO_ctrl(ptr noundef %25, i32 noundef 79, i64 noundef 0, ptr noundef @.str)
  %27 = call ptr @CRYPTO_THREAD_lock_new()
  store ptr %27, ptr @io_lock, align 8, !tbaa !17
  %28 = load i32, ptr %1, align 4, !tbaa !13
  %29 = icmp ne i32 %28, 0
  br i1 %29, label %30, label %31

30:                                               ; preds = %0
  br label %33

31:                                               ; preds = %0
  call void @OPENSSL_die(ptr noundef @.str.1, ptr noundef @.str.2, i32 noundef 155) #6
  unreachable

32:                                               ; No predecessors!
  br label %33

33:                                               ; preds = %32, %30
  %34 = load ptr, ptr @bio_out, align 8, !tbaa !3
  %35 = icmp ne ptr %34, null
  br i1 %35, label %36, label %37

36:                                               ; preds = %33
  br label %39

37:                                               ; preds = %33
  call void @OPENSSL_die(ptr noundef @.str.3, ptr noundef @.str.2, i32 noundef 156) #6
  unreachable

38:                                               ; No predecessors!
  br label %39

39:                                               ; preds = %38, %36
  %40 = load ptr, ptr @bio_err, align 8, !tbaa !3
  %41 = icmp ne ptr %40, null
  br i1 %41, label %42, label %43

42:                                               ; preds = %39
  br label %45

43:                                               ; preds = %39
  call void @OPENSSL_die(ptr noundef @.str.4, ptr noundef @.str.2, i32 noundef 157) #6
  unreachable

44:                                               ; No predecessors!
  br label %45

45:                                               ; preds = %44, %42
  %46 = load ptr, ptr @io_lock, align 8, !tbaa !17
  %47 = icmp ne ptr %46, null
  br i1 %47, label %48, label %49

48:                                               ; preds = %45
  br label %51

49:                                               ; preds = %45
  call void @OPENSSL_die(ptr noundef @.str.5, ptr noundef @.str.2, i32 noundef 159) #6
  unreachable

50:                                               ; No predecessors!
  br label %51

51:                                               ; preds = %50, %48
  call void @llvm.lifetime.end.p0(i64 4, ptr %1) #5
  ret void
}