; Function Attrs: nounwind uwtable
define void @test_open_streams() local_unnamed_addr #0 {
  %1 = tail call i32 @CRYPTO_THREAD_init_local(ptr noundef nonnull @local_test_data, ptr noundef nonnull @cleanup_test_data) #3
  %.not.i.not = icmp eq i32 %1, 0
  %2 = load ptr, ptr @stdout, align 8, !tbaa !10
  %3 = tail call ptr @BIO_new_fp(ptr noundef %2, i32 noundef 16) #3
  store ptr %3, ptr @tap_out, align 8, !tbaa !12
  %4 = load ptr, ptr @stderr, align 8, !tbaa !10
  %5 = tail call ptr @BIO_new_fp(ptr noundef %4, i32 noundef 16) #3
  store ptr %5, ptr @tap_err, align 8, !tbaa !12
  %6 = tail call ptr @BIO_f_prefix() #3
  %7 = tail call ptr @BIO_new(ptr noundef %6) #3
  %8 = load ptr, ptr @tap_out, align 8, !tbaa !12
  %9 = tail call ptr @BIO_push(ptr noundef %7, ptr noundef %8) #3
  store ptr %9, ptr @tap_out, align 8, !tbaa !12
  %10 = tail call ptr @BIO_f_prefix() #3
  %11 = tail call ptr @BIO_new(ptr noundef %10) #3
  %12 = load ptr, ptr @tap_err, align 8, !tbaa !12
  %13 = tail call ptr @BIO_push(ptr noundef %11, ptr noundef %12) #3
  store ptr %13, ptr @tap_err, align 8, !tbaa !12
  %14 = tail call ptr @BIO_f_prefix() #3
  %15 = tail call ptr @BIO_new(ptr noundef %14) #3
  %16 = load ptr, ptr @tap_out, align 8, !tbaa !12
  %17 = tail call ptr @BIO_push(ptr noundef %15, ptr noundef %16) #3
  store ptr %17, ptr @bio_out, align 8, !tbaa !12
  %18 = tail call ptr @BIO_f_prefix() #3
  %19 = tail call ptr @BIO_new(ptr noundef %18) #3
  %20 = load ptr, ptr @tap_err, align 8, !tbaa !12
  %21 = tail call ptr @BIO_push(ptr noundef %19, ptr noundef %20) #3
  store ptr %21, ptr @bio_err, align 8, !tbaa !12
  %22 = load ptr, ptr @bio_out, align 8, !tbaa !12
  %23 = tail call i64 @BIO_ctrl(ptr noundef %22, i32 noundef 79, i64 noundef 0, ptr noundef nonnull @.str) #3
  %24 = load ptr, ptr @bio_err, align 8, !tbaa !12
  %25 = tail call i64 @BIO_ctrl(ptr noundef %24, i32 noundef 79, i64 noundef 0, ptr noundef nonnull @.str) #3
  %26 = tail call ptr @CRYPTO_THREAD_lock_new() #3
  store ptr %26, ptr @io_lock, align 8, !tbaa !13
  br i1 %.not.i.not, label %27, label %28

27:                                               ; preds = %0
  tail call void @OPENSSL_die(ptr noundef nonnull @.str.1, ptr noundef nonnull @.str.2, i32 noundef 155) #4
  unreachable

28:                                               ; preds = %0
  %29 = load ptr, ptr @bio_out, align 8, !tbaa !12
  %.not1 = icmp eq ptr %29, null
  br i1 %.not1, label %30, label %31

30:                                               ; preds = %28
  tail call void @OPENSSL_die(ptr noundef nonnull @.str.3, ptr noundef nonnull @.str.2, i32 noundef 156) #4
  unreachable

31:                                               ; preds = %28
  %32 = load ptr, ptr @bio_err, align 8, !tbaa !12
  %.not2 = icmp eq ptr %32, null
  br i1 %.not2, label %33, label %34

33:                                               ; preds = %31
  tail call void @OPENSSL_die(ptr noundef nonnull @.str.4, ptr noundef nonnull @.str.2, i32 noundef 157) #4
  unreachable

34:                                               ; preds = %31
  %.not3 = icmp eq ptr %26, null
  br i1 %.not3, label %35, label %36

35:                                               ; preds = %34
  tail call void @OPENSSL_die(ptr noundef nonnull @.str.5, ptr noundef nonnull @.str.2, i32 noundef 159) #4
  unreachable

36:                                               ; preds = %34
  ret void
}